target datalayout = "e-m:e-p270:32:32-p271:32:32-p272:64:64-i64:64-i128:128-f80:128-n8:16:32:64-S128"
target triple = "x86_64-pc-linux-gnu"

%struct.pcre2_real_match_data_8 = type { %struct.pcre2_memctl, ptr, ptr, ptr, ptr, i64, i64, i64, i64, i64, i8, i8, i16, i32, [131072 x i64] }
%struct.pcre2_memctl = type { ptr, ptr, ptr }
%struct.pcre2_real_code_8 = type { %struct.pcre2_memctl, ptr, ptr, [32 x i8], i64, i32, i32, i32, i32, i32, i32, i32, i32, i32, i32, i16, i16, i16, i16, i16, i16, i16, i16 }

; Function Attrs: nounwind uwtable
define i32 @php_pcre2_substring_length_bynumber(ptr noundef %0, i32 noundef %1, ptr noundef %2) #0 {
  %4 = alloca i32, align 4
  %5 = alloca ptr, align 8
  %6 = alloca i32, align 4
  %7 = alloca ptr, align 8
  %8 = alloca i64, align 8
  %9 = alloca i64, align 8
  %10 = alloca i32, align 4
  store ptr %0, ptr %5, align 8
  store i32 %1, ptr %6, align 4
  store ptr %2, ptr %7, align 8
  %11 = load ptr, ptr %5, align 8
  %12 = getelementptr inbounds %struct.pcre2_real_match_data_8, ptr %11, i32 0, i32 13
  %13 = load i32, ptr %12, align 4
  store i32 %13, ptr %10, align 4
  %14 = load i32, ptr %10, align 4
  %15 = icmp eq i32 %14, -2
  br i1 %15, label %16, label %21

16:                                               ; preds = %3
  %17 = load i32, ptr %6, align 4
  %18 = icmp ugt i32 %17, 0
  br i1 %18, label %19, label %20

19:                                               ; preds = %16
  store i32 -2, ptr %4, align 4
  br label %123

20:                                               ; preds = %16
  store i32 0, ptr %10, align 4
  br label %27

21:                                               ; preds = %3
  %22 = load i32, ptr %10, align 4
  %23 = icmp slt i32 %22, 0
  br i1 %23, label %24, label %26

24:                                               ; preds = %21
  %25 = load i32, ptr %10, align 4
  store i32 %25, ptr %4, align 4
  br label %123

26:                                               ; preds = %21
  br label %27

27:                                               ; preds = %26, %20
  %28 = load ptr, ptr %5, align 8
  %29 = getelementptr inbounds %struct.pcre2_real_match_data_8, ptr %28, i32 0, i32 10
  %30 = load i8, ptr %29, align 8
  %31 = zext i8 %30 to i32
  %32 = icmp ne i32 %31, 1
  br i1 %32, label %33, label %62

33:                                               ; preds = %27
  %34 = load i32, ptr %6, align 4
  %35 = load ptr, ptr %5, align 8
  %36 = getelementptr inbounds %struct.pcre2_real_match_data_8, ptr %35, i32 0, i32 1
  %37 = load ptr, ptr %36, align 8
  %38 = getelementptr inbounds %struct.pcre2_real_code_8, ptr %37, i32 0, i32 19
  %39 = load i16, ptr %38, align 8
  %40 = zext i16 %39 to i32
  %41 = icmp ugt i32 %34, %40
  br i1 %41, label %42, label %43

42:                                               ; preds = %33
  store i32 -49, ptr %4, align 4
  br label %123

43:                                               ; preds = %33
  %44 = load i32, ptr %6, align 4
  %45 = load ptr, ptr %5, align 8
  %46 = getelementptr inbounds %struct.pcre2_real_match_data_8, ptr %45, i32 0, i32 12
  %47 = load i16, ptr %46, align 2
  %48 = zext i16 %47 to i32
  %49 = icmp uge i32 %44, %48
  br i1 %49, label %50, label %51

50:                                               ; preds = %43
  store i32 -54, ptr %4, align 4
  br label %123

51:                                               ; preds = %43
  %52 = load ptr, ptr %5, align 8
  %53 = getelementptr inbounds %struct.pcre2_real_match_data_8, ptr %52, i32 0, i32 14
  %54 = load i32, ptr %6, align 4
  %55 = mul i32 %54, 2
  %56 = zext i32 %55 to i64
  %57 = getelementptr inbounds [131072 x i64], ptr %53, i64 0, i64 %56
  %58 = load i64, ptr %57, align 8
  %59 = icmp eq i64 %58, -1
  br i1 %59, label %60, label %61

60:                                               ; preds = %51
  store i32 -55, ptr %4, align 4
  br label %123

61:                                               ; preds = %51
  br label %79

62:                                               ; preds = %27
  %63 = load i32, ptr %6, align 4
  %64 = load ptr, ptr %5, align 8
  %65 = getelementptr inbounds %struct.pcre2_real_match_data_8, ptr %64, i32 0, i32 12
  %66 = load i16, ptr %65, align 2
  %67 = zext i16 %66 to i32
  %68 = icmp uge i32 %63, %67
  br i1 %68, label %69, label %70

69:                                               ; preds = %62
  store i32 -54, ptr %4, align 4
  br label %123

70:                                               ; preds = %62
  %71 = load i32, ptr %10, align 4
  %72 = icmp ne i32 %71, 0
  br i1 %72, label %73, label %78

73:                                               ; preds = %70
  %74 = load i32, ptr %6, align 4
  %75 = load i32, ptr %10, align 4
  %76 = icmp uge i32 %74, %75
  br i1 %76, label %77, label %78

77:                                               ; preds = %73
  store i32 -55, ptr %4, align 4
  br label %123

78:                                               ; preds = %73, %70
  br label %79

79:                                               ; preds = %78, %61
  %80 = load ptr, ptr %5, align 8
  %81 = getelementptr inbounds %struct.pcre2_real_match_data_8, ptr %80, i32 0, i32 14
  %82 = load i32, ptr %6, align 4
  %83 = mul i32 %82, 2
  %84 = zext i32 %83 to i64
  %85 = getelementptr inbounds [131072 x i64], ptr %81, i64 0, i64 %84
  %86 = load i64, ptr %85, align 8
  store i64 %86, ptr %8, align 8
  %87 = load ptr, ptr %5, align 8
  %88 = getelementptr inbounds %struct.pcre2_real_match_data_8, ptr %87, i32 0, i32 14
  %89 = load i32, ptr %6, align 4
  %90 = mul i32 %89, 2
  %91 = add i32 %90, 1
  %92 = zext i32 %91 to i64
  %93 = getelementptr inbounds [131072 x i64], ptr %88, i64 0, i64 %92
  %94 = load i64, ptr %93, align 8
  store i64 %94, ptr %9, align 8
  %95 = load i64, ptr %8, align 8
  %96 = load ptr, ptr %5, align 8
  %97 = getelementptr inbounds %struct.pcre2_real_match_data_8, ptr %96, i32 0, i32 6
  %98 = load i64, ptr %97, align 8
  %99 = icmp ugt i64 %95, %98
  br i1 %99, label %106, label %100

100:                                              ; preds = %79
  %101 = load i64, ptr %9, align 8
  %102 = load ptr, ptr %5, align 8
  %103 = getelementptr inbounds %struct.pcre2_real_match_data_8, ptr %102, i32 0, i32 6
  %104 = load i64, ptr %103, align 8
  %105 = icmp ugt i64 %101, %104
  br i1 %105, label %106, label %107

106:                                              ; preds = %100, %79
  store i32 -67, ptr %4, align 4
  br label %123

107:                                              ; preds = %100
  %108 = load ptr, ptr %7, align 8
  %109 = icmp ne ptr %108, null
  br i1 %109, label %110, label %122

110:                                              ; preds = %107
  %111 = load i64, ptr %8, align 8
  %112 = load i64, ptr %9, align 8
  %113 = icmp ugt i64 %111, %112
  br i1 %113, label %114, label %115

114:                                              ; preds = %110
  br label %119

115:                                              ; preds = %110
  %116 = load i64, ptr %9, align 8
  %117 = load i64, ptr %8, align 8
  %118 = sub i64 %116, %117
  br label %119

119:                                              ; preds = %115, %114
  %120 = phi i64 [ 0, %114 ], [ %118, %115 ]
  %121 = load ptr, ptr %7, align 8
  store i64 %120, ptr %121, align 8
  br label %122

122:                                              ; preds = %119, %107
  store i32 0, ptr %4, align 4
  br label %123

123:                                              ; preds = %122, %106, %77, %69, %60, %50, %42, %24, %19
  %124 = load i32, ptr %4, align 4
  ret i32 %124
}

; Function Attrs: nounwind uwtable
define i32 @php_pcre2_substring_copy_bynumber(ptr noundef %0, i32 noundef %1, ptr noundef %2, ptr noundef %3) #0 {
  %5 = alloca i32, align 4
  %6 = alloca ptr, align 8
  %7 = alloca i32, align 4
  %8 = alloca ptr, align 8
  %9 = alloca ptr, align 8
  %10 = alloca i32, align 4
  %11 = alloca i64, align 8
  store ptr %0, ptr %6, align 8
  store i32 %1, ptr %7, align 4
  store ptr %2, ptr %8, align 8
  store ptr %3, ptr %9, align 8
  %12 = load ptr, ptr %6, align 8
  %13 = load i32, ptr %7, align 4
  %14 = call i32 @php_pcre2_substring_length_bynumber(ptr noundef %12, i32 noundef %13, ptr noundef %11)
  store i32 %14, ptr %10, align 4
  %15 = load i32, ptr %10, align 4
  %16 = icmp slt i32 %15, 0
  br i1 %16, label %17, label %19

17:                                               ; preds = %4
  %18 = load i32, ptr %10, align 4
  store i32 %18, ptr %5, align 4
  br label %46

19:                                               ; preds = %4
  %20 = load i64, ptr %11, align 8
  %21 = add i64 %20, 1
  %22 = load ptr, ptr %9, align 8
  %23 = load i64, ptr %22, align 8
  %24 = icmp ugt i64 %21, %23
  br i1 %24, label %25, label %26

25:                                               ; preds = %19
  store i32 -48, ptr %5, align 4
  br label %46

26:                                               ; preds = %19
  %27 = load ptr, ptr %8, align 8
  %28 = load ptr, ptr %6, align 8
  %29 = getelementptr inbounds %struct.pcre2_real_match_data_8, ptr %28, i32 0, i32 2
  %30 = load ptr, ptr %29, align 8
  %31 = load ptr, ptr %6, align 8
  %32 = getelementptr inbounds %struct.pcre2_real_match_data_8, ptr %31, i32 0, i32 14
  %33 = load i32, ptr %7, align 4
  %34 = mul i32 %33, 2
  %35 = zext i32 %34 to i64
  %36 = getelementptr inbounds [131072 x i64], ptr %32, i64 0, i64 %35
  %37 = load i64, ptr %36, align 8
  %38 = getelementptr inbounds i8, ptr %30, i64 %37
  %39 = load i64, ptr %11, align 8
  %40 = mul i64 %39, 1
  call void @llvm.memcpy.p0.p0.i64(ptr align 1 %27, ptr align 1 %38, i64 %40, i1 false)
  %41 = load ptr, ptr %8, align 8
  %42 = load i64, ptr %11, align 8
  %43 = getelementptr inbounds i8, ptr %41, i64 %42
  store i8 0, ptr %43, align 1
  %44 = load i64, ptr %11, align 8
  %45 = load ptr, ptr %9, align 8
  store i64 %44, ptr %45, align 8
  store i32 0, ptr %5, align 4
  br label %46

46:                                               ; preds = %26, %25, %17
  %47 = load i32, ptr %5, align 4
  ret i32 %47
}