; Function Attrs: mustprogress nofree norecurse nosync nounwind willreturn memory(readwrite, inaccessiblemem: none) uwtable
define i32 @php_pcre2_substring_copy_bynumber(ptr nocapture noundef readonly %0, i32 noundef %1, ptr nocapture noundef writeonly %2, ptr nocapture noundef %3) local_unnamed_addr #1 {
  %5 = getelementptr inbounds i8, ptr %0, i64 100
  %6 = load i32, ptr %5, align 4
  %7 = icmp eq i32 %6, -2
  br i1 %7, label %8, label %9

8:                                                ; preds = %4
  %.not.i = icmp eq i32 %1, 0
  br i1 %.not.i, label %11, label %php_pcre2_substring_length_bynumber.exit.thread

9:                                                ; preds = %4
  %10 = icmp slt i32 %6, 0
  br i1 %10, label %php_pcre2_substring_length_bynumber.exit.thread, label %11

11:                                               ; preds = %9, %8
  %.0.i = phi i32 [ %6, %9 ], [ 0, %8 ]
  %12 = getelementptr inbounds i8, ptr %0, i64 96
  %13 = load i8, ptr %12, align 8
  %.not38.i = icmp eq i8 %13, 1
  br i1 %.not38.i, label %32, label %14

14:                                               ; preds = %11
  %15 = getelementptr inbounds i8, ptr %0, i64 24
  %16 = load ptr, ptr %15, align 8
  %17 = getelementptr inbounds i8, ptr %16, i64 128
  %18 = load i16, ptr %17, align 8
  %19 = zext i16 %18 to i32
  %20 = icmp ult i32 %19, %1
  br i1 %20, label %php_pcre2_substring_length_bynumber.exit.thread, label %21

21:                                               ; preds = %14
  %22 = getelementptr inbounds i8, ptr %0, i64 98
  %23 = load i16, ptr %22, align 2
  %24 = zext i16 %23 to i32
  %.not42.i = icmp ugt i32 %24, %1
  br i1 %.not42.i, label %25, label %php_pcre2_substring_length_bynumber.exit.thread

25:                                               ; preds = %21
  %26 = getelementptr inbounds i8, ptr %0, i64 104
  %27 = shl nuw nsw i32 %1, 1
  %28 = zext nneg i32 %27 to i64
  %29 = getelementptr inbounds [131072 x i64], ptr %26, i64 0, i64 %28
  %30 = load i64, ptr %29, align 8
  %31 = icmp eq i64 %30, -1
  br i1 %31, label %php_pcre2_substring_length_bynumber.exit.thread, label %38

32:                                               ; preds = %11
  %33 = getelementptr inbounds i8, ptr %0, i64 98
  %34 = load i16, ptr %33, align 2
  %35 = zext i16 %34 to i32
  %.not39.i = icmp ugt i32 %35, %1
  br i1 %.not39.i, label %36, label %php_pcre2_substring_length_bynumber.exit.thread

36:                                               ; preds = %32
  %37 = add nsw i32 %.0.i, -1
  %or.cond.not.i = icmp ult i32 %37, %1
  br i1 %or.cond.not.i, label %php_pcre2_substring_length_bynumber.exit.thread, label %._crit_edge.i

._crit_edge.i:                                    ; preds = %36
  %.pre.i = shl nuw nsw i32 %1, 1
  %.pre45.i = zext nneg i32 %.pre.i to i64
  br label %38

38:                                               ; preds = %._crit_edge.i, %25
  %.pre-phi46.i = phi i64 [ %.pre45.i, %._crit_edge.i ], [ %28, %25 ]
  %.pre-phi.i = phi i32 [ %.pre.i, %._crit_edge.i ], [ %27, %25 ]
  %39 = getelementptr inbounds i8, ptr %0, i64 104
  %40 = getelementptr inbounds [131072 x i64], ptr %39, i64 0, i64 %.pre-phi46.i
  %41 = load i64, ptr %40, align 8
  %42 = or disjoint i32 %.pre-phi.i, 1
  %43 = zext nneg i32 %42 to i64
  %44 = getelementptr inbounds [131072 x i64], ptr %39, i64 0, i64 %43
  %45 = load i64, ptr %44, align 8
  %46 = getelementptr inbounds i8, ptr %0, i64 64
  %47 = load i64, ptr %46, align 8
  %48 = icmp ugt i64 %41, %47
  %49 = icmp ugt i64 %45, %47
  %or.cond44.i = select i1 %48, i1 true, i1 %49
  br i1 %or.cond44.i, label %php_pcre2_substring_length_bynumber.exit.thread, label %50

50:                                               ; preds = %38
  %51 = tail call i64 @llvm.usub.sat.i64(i64 %45, i64 %41)
  %52 = add i64 %51, 1
  %53 = load i64, ptr %3, align 8
  %54 = icmp ugt i64 %52, %53
  br i1 %54, label %php_pcre2_substring_length_bynumber.exit.thread, label %55

55:                                               ; preds = %50
  %56 = getelementptr inbounds i8, ptr %0, i64 32
  %57 = load ptr, ptr %56, align 8
  %58 = shl nuw nsw i32 %1, 1
  %59 = zext nneg i32 %58 to i64
  %60 = getelementptr inbounds [131072 x i64], ptr %39, i64 0, i64 %59
  %61 = load i64, ptr %60, align 8
  %62 = getelementptr inbounds i8, ptr %57, i64 %61
  tail call void @llvm.memcpy.p0.p0.i64(ptr align 1 %2, ptr align 1 %62, i64 %51, i1 false)
  %63 = getelementptr inbounds i8, ptr %2, i64 %51
  store i8 0, ptr %63, align 1
  store i64 %51, ptr %3, align 8
  br label %php_pcre2_substring_length_bynumber.exit.thread

php_pcre2_substring_length_bynumber.exit.thread:  ; preds = %38, %36, %32, %25, %21, %14, %9, %8, %50, %55
  %.0 = phi i32 [ 0, %55 ], [ -48, %50 ], [ -67, %38 ], [ -55, %36 ], [ -54, %32 ], [ -55, %25 ], [ -54, %21 ], [ -49, %14 ], [ %6, %9 ], [ -2, %8 ]
  ret i32 %.0
}